; Function Attrs: mustprogress uwtable
define void @_ZN8proxygen29RequestWorkerThreadNoExecutor5setupEv(ptr noundef nonnull align 8 dereferenceable(136) %this) unnamed_addr #0 align 2 {
entry:
  tail call void @_ZN8proxygen12WorkerThread5setupEv(ptr noundef nonnull align 8 dereferenceable(80) %this)
  %callback_ = getelementptr inbounds i8, ptr %this, i64 128
  %0 = load ptr, ptr %callback_, align 8
  %vtable = load ptr, ptr %0, align 8
  %vfn = getelementptr inbounds i8, ptr %vtable, i64 16
  %1 = load ptr, ptr %vfn, align 8
  tail call void %1(ptr noundef nonnull align 8 dereferenceable(8) %0, ptr noundef nonnull %this)
  ret void
}